target datalayout = "e-m:e-p270:32:32-p271:32:32-p272:64:64-i64:64-i128:128-f80:128-n8:16:32:64-S128"
target triple = "x86_64-pc-linux-gnu"

%struct.ossl_param_st = type { ptr, i32, ptr, i64, i64 }

@.str.6 = private unnamed_addr constant [35 x i8] c"../openssl/test/param_build_test.c\00", align 1
@.str.7 = private unnamed_addr constant [27 x i8] c"bld = OSSL_PARAM_BLD_new()\00", align 1
@.str.10 = private unnamed_addr constant [11 x i8] c"zeronumber\00", align 1
@.str.11 = private unnamed_addr constant [42 x i8] c"params_blt = OSSL_PARAM_BLD_to_param(bld)\00", align 1
@.str.12 = private unnamed_addr constant [44 x i8] c"p = OSSL_PARAM_locate(params, \22zeronumber\22)\00", align 1
@.str.13 = private unnamed_addr constant [7 x i8] c"p->key\00", align 1
@.str.14 = private unnamed_addr constant [13 x i8] c"\22zeronumber\22\00", align 1
@.str.15 = private unnamed_addr constant [13 x i8] c"p->data_type\00", align 1
@.str.16 = private unnamed_addr constant [28 x i8] c"OSSL_PARAM_UNSIGNED_INTEGER\00", align 1
@.str.17 = private unnamed_addr constant [31 x i8] c"OSSL_PARAM_get_BN(p, &zbn_res)\00", align 1
@.str.18 = private unnamed_addr constant [8 x i8] c"zbn_res\00", align 1
@.str.19 = private unnamed_addr constant [4 x i8] c"zbn\00", align 1
@.str.31 = private unnamed_addr constant [47 x i8] c"OSSL_PARAM_BLD_push_BN(bld, \22zeronumber\22, zbn)\00", align 1
@.str.103 = private unnamed_addr constant [22 x i8] c"zbn = BN_secure_new()\00", align 1
@.str.104 = private unnamed_addr constant [33 x i8] c"CRYPTO_secure_allocated(p->data)\00", align 1
@.str.105 = private unnamed_addr constant [33 x i8] c"BN_get_flags(zbn, BN_FLG_SECURE)\00", align 1
@.str.106 = private unnamed_addr constant [14 x i8] c"BN_FLG_SECURE\00", align 1

; Function Attrs: nounwind uwtable
define internal i32 @template_private_single_zero_test() #0 {
  %1 = alloca ptr, align 8
  %2 = alloca ptr, align 8
  %3 = alloca ptr, align 8
  %4 = alloca ptr, align 8
  %5 = alloca ptr, align 8
  %6 = alloca ptr, align 8
  %7 = alloca i32, align 4
  call void @llvm.lifetime.start.p0(i64 8, ptr %1) #3
  store ptr null, ptr %1, align 8, !tbaa !8
  call void @llvm.lifetime.start.p0(i64 8, ptr %2) #3
  store ptr null, ptr %2, align 8, !tbaa !11
  call void @llvm.lifetime.start.p0(i64 8, ptr %3) #3
  store ptr null, ptr %3, align 8, !tbaa !11
  call void @llvm.lifetime.start.p0(i64 8, ptr %4) #3
  call void @llvm.lifetime.start.p0(i64 8, ptr %5) #3
  store ptr null, ptr %5, align 8, !tbaa !13
  call void @llvm.lifetime.start.p0(i64 8, ptr %6) #3
  store ptr null, ptr %6, align 8, !tbaa !13
  call void @llvm.lifetime.start.p0(i64 4, ptr %7) #3
  store i32 0, ptr %7, align 4, !tbaa !4
  %8 = call ptr @OSSL_PARAM_BLD_new()
  store ptr %8, ptr %1, align 8, !tbaa !8
  %9 = call i32 @test_ptr(ptr noundef @.str.6, i32 noundef 59, ptr noundef @.str.7, ptr noundef %8)
  %10 = icmp ne i32 %9, 0
  br i1 %10, label %11, label %28

11:                                               ; preds = %0
  %12 = call ptr @BN_secure_new()
  store ptr %12, ptr %5, align 8, !tbaa !13
  %13 = call i32 @test_ptr(ptr noundef @.str.6, i32 noundef 60, ptr noundef @.str.103, ptr noundef %12)
  %14 = icmp ne i32 %13, 0
  br i1 %14, label %15, label %28

15:                                               ; preds = %11
  %16 = load ptr, ptr %1, align 8, !tbaa !8
  %17 = load ptr, ptr %5, align 8, !tbaa !13
  %18 = call i32 @OSSL_PARAM_BLD_push_BN(ptr noundef %16, ptr noundef @.str.10, ptr noundef %17)
  %19 = icmp ne i32 %18, 0
  %20 = zext i1 %19 to i32
  %21 = call i32 @test_true(ptr noundef @.str.6, i32 noundef 61, ptr noundef @.str.31, i32 noundef %20)
  %22 = icmp ne i32 %21, 0
  br i1 %22, label %23, label %28

23:                                               ; preds = %15
  %24 = load ptr, ptr %1, align 8, !tbaa !8
  %25 = call ptr @OSSL_PARAM_BLD_to_param(ptr noundef %24)
  store ptr %25, ptr %3, align 8, !tbaa !11
  %26 = call i32 @test_ptr(ptr noundef @.str.6, i32 noundef 62, ptr noundef @.str.11, ptr noundef %25)
  %27 = icmp ne i32 %26, 0
  br i1 %27, label %29, label %28

28:                                               ; preds = %23, %15, %11, %0
  br label %75

29:                                               ; preds = %23
  %30 = load ptr, ptr %3, align 8, !tbaa !11
  store ptr %30, ptr %2, align 8, !tbaa !11
  %31 = load ptr, ptr %2, align 8, !tbaa !11
  %32 = call ptr @OSSL_PARAM_locate(ptr noundef %31, ptr noundef @.str.10)
  store ptr %32, ptr %4, align 8, !tbaa !11
  %33 = call i32 @test_ptr(ptr noundef @.str.6, i32 noundef 67, ptr noundef @.str.12, ptr noundef %32)
  %34 = icmp ne i32 %33, 0
  br i1 %34, label %35, label %73

35:                                               ; preds = %29
  %36 = load ptr, ptr %4, align 8, !tbaa !11
  %37 = getelementptr inbounds nuw %struct.ossl_param_st, ptr %36, i32 0, i32 2
  %38 = load ptr, ptr %37, align 8, !tbaa !25
  %39 = call i32 @CRYPTO_secure_allocated(ptr noundef %38)
  %40 = icmp ne i32 %39, 0
  %41 = zext i1 %40 to i32
  %42 = call i32 @test_true(ptr noundef @.str.6, i32 noundef 68, ptr noundef @.str.104, i32 noundef %41)
  %43 = icmp ne i32 %42, 0
  br i1 %43, label %44, label %73

44:                                               ; preds = %35
  %45 = load ptr, ptr %4, align 8, !tbaa !11
  %46 = getelementptr inbounds nuw %struct.ossl_param_st, ptr %45, i32 0, i32 0
  %47 = load ptr, ptr %46, align 8, !tbaa !15
  %48 = call i32 @test_str_eq(ptr noundef @.str.6, i32 noundef 69, ptr noundef @.str.13, ptr noundef @.str.14, ptr noundef %47, ptr noundef @.str.10)
  %49 = icmp ne i32 %48, 0
  br i1 %49, label %50, label %73

50:                                               ; preds = %44
  %51 = load ptr, ptr %4, align 8, !tbaa !11
  %52 = getelementptr inbounds nuw %struct.ossl_param_st, ptr %51, i32 0, i32 1
  %53 = load i32, ptr %52, align 8, !tbaa !19
  %54 = call i32 @test_uint_eq(ptr noundef @.str.6, i32 noundef 70, ptr noundef @.str.15, ptr noundef @.str.16, i32 noundef %53, i32 noundef 2)
  %55 = icmp ne i32 %54, 0
  br i1 %55, label %56, label %73

56:                                               ; preds = %50
  %57 = load ptr, ptr %4, align 8, !tbaa !11
  %58 = call i32 @OSSL_PARAM_get_BN(ptr noundef %57, ptr noundef %6)
  %59 = icmp ne i32 %58, 0
  %60 = zext i1 %59 to i32
  %61 = call i32 @test_true(ptr noundef @.str.6, i32 noundef 71, ptr noundef @.str.17, i32 noundef %60)
  %62 = icmp ne i32 %61, 0
  br i1 %62, label %63, label %73

63:                                               ; preds = %56
  %64 = load ptr, ptr %5, align 8, !tbaa !13
  %65 = call i32 @BN_get_flags(ptr noundef %64, i32 noundef 8)
  %66 = call i32 @test_int_eq(ptr noundef @.str.6, i32 noundef 72, ptr noundef @.str.105, ptr noundef @.str.106, i32 noundef %65, i32 noundef 8)
  %67 = icmp ne i32 %66, 0
  br i1 %67, label %68, label %73

68:                                               ; preds = %63
  %69 = load ptr, ptr %6, align 8, !tbaa !13
  %70 = load ptr, ptr %5, align 8, !tbaa !13
  %71 = call i32 @test_BN_eq(ptr noundef @.str.6, i32 noundef 73, ptr noundef @.str.18, ptr noundef @.str.19, ptr noundef %69, ptr noundef %70)
  %72 = icmp ne i32 %71, 0
  br i1 %72, label %74, label %73

73:                                               ; preds = %68, %63, %56, %50, %44, %35, %29
  br label %75

74:                                               ; preds = %68
  store i32 1, ptr %7, align 4, !tbaa !4
  br label %75

75:                                               ; preds = %74, %73, %28
  %76 = load ptr, ptr %2, align 8, !tbaa !11
  %77 = load ptr, ptr %3, align 8, !tbaa !11
  %78 = icmp ne ptr %76, %77
  br i1 %78, label %79, label %81

79:                                               ; preds = %75
  %80 = load ptr, ptr %2, align 8, !tbaa !11
  call void @CRYPTO_free(ptr noundef %80, ptr noundef @.str.6, i32 noundef 78)
  br label %81

81:                                               ; preds = %79, %75
  %82 = load ptr, ptr %3, align 8, !tbaa !11
  call void @OSSL_PARAM_free(ptr noundef %82)
  %83 = load ptr, ptr %1, align 8, !tbaa !8
  call void @OSSL_PARAM_BLD_free(ptr noundef %83)
  %84 = load ptr, ptr %5, align 8, !tbaa !13
  call void @BN_free(ptr noundef %84)
  %85 = load ptr, ptr %6, align 8, !tbaa !13
  call void @BN_free(ptr noundef %85)
  %86 = load i32, ptr %7, align 4, !tbaa !4
  call void @llvm.lifetime.end.p0(i64 4, ptr %7) #3
  call void @llvm.lifetime.end.p0(i64 8, ptr %6) #3
  call void @llvm.lifetime.end.p0(i64 8, ptr %5) #3
  call void @llvm.lifetime.end.p0(i64 8, ptr %4) #3
  call void @llvm.lifetime.end.p0(i64 8, ptr %3) #3
  call void @llvm.lifetime.end.p0(i64 8, ptr %2) #3
  call void @llvm.lifetime.end.p0(i64 8, ptr %1) #3
  ret i32 %86
}