; Function Attrs: nounwind uwtable
define internal range(i32 0, 2) i32 @template_private_single_zero_test() #0 {
  %1 = alloca ptr, align 8
  call void @llvm.lifetime.start.p0(i64 8, ptr nonnull %1) #3
  store ptr null, ptr %1, align 8, !tbaa !4
  %2 = tail call ptr @OSSL_PARAM_BLD_new() #3
  %3 = tail call i32 @test_ptr(ptr noundef nonnull @.str.6, i32 noundef 59, ptr noundef nonnull @.str.7, ptr noundef %2) #3
  %.not = icmp eq i32 %3, 0
  br i1 %.not, label %.thread, label %4

4:                                                ; preds = %0
  %5 = tail call ptr @BN_secure_new() #3
  %6 = tail call i32 @test_ptr(ptr noundef nonnull @.str.6, i32 noundef 60, ptr noundef nonnull @.str.103, ptr noundef %5) #3
  %.not20 = icmp eq i32 %6, 0
  br i1 %.not20, label %.thread, label %7

7:                                                ; preds = %4
  %8 = tail call i32 @OSSL_PARAM_BLD_push_BN(ptr noundef %2, ptr noundef nonnull @.str.10, ptr noundef %5) #3
  %9 = icmp ne i32 %8, 0
  %10 = zext i1 %9 to i32
  %11 = tail call i32 @test_true(ptr noundef nonnull @.str.6, i32 noundef 61, ptr noundef nonnull @.str.31, i32 noundef %10) #3
  %.not21 = icmp eq i32 %11, 0
  br i1 %.not21, label %.thread, label %12

12:                                               ; preds = %7
  %13 = tail call ptr @OSSL_PARAM_BLD_to_param(ptr noundef %2) #3
  %14 = tail call i32 @test_ptr(ptr noundef nonnull @.str.6, i32 noundef 62, ptr noundef nonnull @.str.11, ptr noundef %13) #3
  %.not22 = icmp eq i32 %14, 0
  br i1 %.not22, label %43, label %15

15:                                               ; preds = %12
  %16 = tail call ptr @OSSL_PARAM_locate(ptr noundef %13, ptr noundef nonnull @.str.10) #3
  %17 = tail call i32 @test_ptr(ptr noundef nonnull @.str.6, i32 noundef 67, ptr noundef nonnull @.str.12, ptr noundef %16) #3
  %.not23 = icmp eq i32 %17, 0
  br i1 %.not23, label %.thread, label %18

18:                                               ; preds = %15
  %19 = getelementptr inbounds nuw i8, ptr %16, i64 16
  %20 = load ptr, ptr %19, align 8, !tbaa !21
  %21 = tail call i32 @CRYPTO_secure_allocated(ptr noundef %20) #3
  %22 = icmp ne i32 %21, 0
  %23 = zext i1 %22 to i32
  %24 = tail call i32 @test_true(ptr noundef nonnull @.str.6, i32 noundef 68, ptr noundef nonnull @.str.104, i32 noundef %23) #3
  %.not24 = icmp eq i32 %24, 0
  br i1 %.not24, label %.thread, label %25

25:                                               ; preds = %18
  %26 = load ptr, ptr %16, align 8, !tbaa !9
  %27 = tail call i32 @test_str_eq(ptr noundef nonnull @.str.6, i32 noundef 69, ptr noundef nonnull @.str.13, ptr noundef nonnull @.str.14, ptr noundef %26, ptr noundef nonnull @.str.10) #3
  %.not25 = icmp eq i32 %27, 0
  br i1 %.not25, label %.thread, label %28

28:                                               ; preds = %25
  %29 = getelementptr inbounds nuw i8, ptr %16, i64 8
  %30 = load i32, ptr %29, align 8, !tbaa !14
  %31 = tail call i32 @test_uint_eq(ptr noundef nonnull @.str.6, i32 noundef 70, ptr noundef nonnull @.str.15, ptr noundef nonnull @.str.16, i32 noundef %30, i32 noundef 2) #3
  %.not26 = icmp eq i32 %31, 0
  br i1 %.not26, label %.thread, label %32

32:                                               ; preds = %28
  %33 = call i32 @OSSL_PARAM_get_BN(ptr noundef nonnull %16, ptr noundef nonnull %1) #3
  %34 = icmp ne i32 %33, 0
  %35 = zext i1 %34 to i32
  %36 = call i32 @test_true(ptr noundef nonnull @.str.6, i32 noundef 71, ptr noundef nonnull @.str.17, i32 noundef %35) #3
  %.not27 = icmp eq i32 %36, 0
  br i1 %.not27, label %.thread, label %37

37:                                               ; preds = %32
  %38 = call i32 @BN_get_flags(ptr noundef %5, i32 noundef 8) #3
  %39 = call i32 @test_int_eq(ptr noundef nonnull @.str.6, i32 noundef 72, ptr noundef nonnull @.str.105, ptr noundef nonnull @.str.106, i32 noundef %38, i32 noundef 8) #3
  %.not28 = icmp eq i32 %39, 0
  br i1 %.not28, label %.thread, label %40

40:                                               ; preds = %37
  %41 = load ptr, ptr %1, align 8, !tbaa !4
  %42 = call i32 @test_BN_eq(ptr noundef nonnull @.str.6, i32 noundef 73, ptr noundef nonnull @.str.18, ptr noundef nonnull @.str.19, ptr noundef %41, ptr noundef %5) #3
  %.not29 = icmp ne i32 %42, 0
  %spec.select = zext i1 %.not29 to i32
  br label %.thread

43:                                               ; preds = %12
  %.not30 = icmp eq ptr %13, null
  br i1 %.not30, label %.thread, label %44

44:                                               ; preds = %43
  tail call void @CRYPTO_free(ptr noundef null, ptr noundef nonnull @.str.6, i32 noundef 78) #3
  br label %.thread

.thread:                                          ; preds = %40, %0, %4, %7, %15, %18, %25, %28, %32, %37, %44, %43
  %.038 = phi i32 [ 0, %44 ], [ 0, %43 ], [ %spec.select, %40 ], [ 0, %0 ], [ 0, %4 ], [ 0, %7 ], [ 0, %15 ], [ 0, %18 ], [ 0, %25 ], [ 0, %28 ], [ 0, %32 ], [ 0, %37 ]
  %.01737 = phi ptr [ %5, %44 ], [ %5, %43 ], [ %5, %40 ], [ null, %0 ], [ %5, %4 ], [ %5, %7 ], [ %5, %15 ], [ %5, %18 ], [ %5, %25 ], [ %5, %28 ], [ %5, %32 ], [ %5, %37 ]
  %.01836 = phi ptr [ %13, %44 ], [ null, %43 ], [ %13, %40 ], [ null, %0 ], [ null, %4 ], [ null, %7 ], [ %13, %15 ], [ %13, %18 ], [ %13, %25 ], [ %13, %28 ], [ %13, %32 ], [ %13, %37 ]
  call void @OSSL_PARAM_free(ptr noundef %.01836) #3
  call void @OSSL_PARAM_BLD_free(ptr noundef %2) #3
  call void @BN_free(ptr noundef %.01737) #3
  %45 = load ptr, ptr %1, align 8, !tbaa !4
  call void @BN_free(ptr noundef %45) #3
  call void @llvm.lifetime.end.p0(i64 8, ptr nonnull %1) #3
  ret i32 %.038
}